; Function Attrs: mustprogress uwtable
define dso_local void @_ZN4Luau10Normalizer12unionClassesERNS_7TypeIdsERKS1_(ptr noundef nonnull readnone align 8 captures(none) dereferenceable(337) %0, ptr noundef nonnull align 8 dereferenceable(72) %1, ptr noundef nonnull readonly align 8 captures(none) dereferenceable(72) %2) local_unnamed_addr #4 align 2 {
  %4 = getelementptr inbounds nuw i8, ptr %2, i64 40
  %5 = load ptr, ptr %4, align 8, !tbaa !49
  %6 = getelementptr inbounds nuw i8, ptr %2, i64 48
  %7 = load ptr, ptr %6, align 8, !tbaa !49
  %.not9 = icmp eq ptr %5, %7
  br i1 %.not9, label %._crit_edge, label %.lr.ph

._crit_edge:                                      ; preds = %.lr.ph, %3
  ret void

.lr.ph:                                           ; preds = %3, %.lr.ph
  %.sroa.06.010 = phi ptr [ %9, %.lr.ph ], [ %5, %3 ]
  %8 = load ptr, ptr %.sroa.06.010, align 8, !tbaa !19
  tail call void @_ZN4Luau10Normalizer21unionClassesWithClassERNS_7TypeIdsEPKNS_4TypeE(ptr nonnull align 8 poison, ptr noundef nonnull align 8 dereferenceable(72) %1, ptr noundef %8)
  %9 = getelementptr inbounds nuw i8, ptr %.sroa.06.010, i64 8
  %.not = icmp eq ptr %9, %7
  br i1 %.not, label %._crit_edge, label %.lr.ph
}